target datalayout = "e-m:e-p270:32:32-p271:32:32-p272:64:64-i64:64-i128:128-f80:128-n8:16:32:64-S128"
target triple = "x86_64-pc-linux-gnu"

%struct.pmix_server_globals_t = type { %struct.pmix_list_t, %struct.pmix_pointer_array_t, %struct.pmix_list_t, %struct.pmix_list_t, %struct.pmix_list_t, %struct.pmix_list_t, ptr, %struct.pmix_list_t, ptr, %struct.pmix_list_t, %struct.pmix_list_t, %struct.pmix_list_t, i64, i8, ptr, ptr, i8, i32, i32, i32, i32, i32, i32, i32, i32, i32, i32, i32, i32, i32, i32, i32, i32, i32, i32 }
%struct.pmix_pointer_array_t = type { %struct.pmix_object_t, i32, i32, i32, i32, i32, ptr, ptr }
%struct.pmix_object_t = type { %union.pthread_mutex_t, ptr, i32, %struct.pmix_tma }
%union.pthread_mutex_t = type { %struct.__pthread_mutex_s }
%struct.__pthread_mutex_s = type { i32, i32, i32, i32, i32, i16, i16, %struct.__pthread_internal_list }
%struct.__pthread_internal_list = type { ptr, ptr }
%struct.pmix_tma = type { ptr, ptr, ptr, ptr, ptr, ptr, ptr, ptr }
%struct.pmix_list_t = type { %struct.pmix_object_t, %struct.pmix_list_item_t, i64 }
%struct.pmix_list_item_t = type { %struct.pmix_object_t, ptr, ptr, i32 }
%struct.pmix_output_desc_t = type { i8, i8, i32, i8, i32, ptr, ptr, i32, ptr, i32, i8, i8, i8, i8, ptr, i32, i32 }
%struct.pmix_proc = type { [256 x i8], i32 }
%struct.timeval = type { i64, i64 }
%struct.pmix_class_t = type { ptr, ptr, ptr, ptr, i32, i32, ptr, ptr, i64 }
%struct.event = type { %struct.event_callback, %union.anon.0, i32, ptr, %union.anon.2, i16, i16, %struct.timeval }
%struct.event_callback = type { %struct.anon, i16, i8, i8, %union.anon, ptr }
%struct.anon = type { ptr, ptr }
%union.anon = type { ptr }
%union.anon.0 = type { %struct.anon.1 }
%struct.anon.1 = type { ptr, ptr }
%union.anon.2 = type { %struct.anon.3 }
%struct.anon.3 = type { %struct.anon.4, %struct.timeval }
%struct.anon.4 = type { ptr, ptr }
%struct.pmix_lock_t = type { i32, %struct.pmix_mutex_t, %union.pthread_cond_t, i8 }
%struct.pmix_mutex_t = type { %struct.pmix_object_t, %union.pthread_mutex_t }
%union.pthread_cond_t = type { %struct.__pthread_cond_s }
%struct.__pthread_cond_s = type { %union.__atomic_wide_counter, %union.__atomic_wide_counter, [2 x i32], [2 x i32], i32, i32, [2 x i32] }
%union.__atomic_wide_counter = type { i64 }
%struct.pmix_server_trkr_t = type { %struct.pmix_list_item_t, %struct.event, i8, i8, i8, ptr, i8, %struct.pmix_proc, i8, ptr, i64, %struct.pmix_list_t, %struct.pmix_lock_t, i8, %struct.pmix_list_t, i32, i32, ptr, i64, %struct.pmix_list_t, i32, i32, ptr, ptr, ptr, ptr }

@pmix_server_globals = external global %struct.pmix_server_globals_t, align 8
@pmix_output_info = external global [0 x %struct.pmix_output_desc_t], align 8
@.str.86 = private unnamed_addr constant [21 x i8] c"pthread_mutex_lock()\00", align 1
@.str.89 = private unnamed_addr constant [29 x i8] c"ALERT: connect timeout fired\00", align 1

; Function Attrs: inlinehint nounwind uwtable
define internal void @pmix_tma_free(ptr noundef %0, ptr noundef %1) #4 {
  %3 = alloca ptr, align 8
  %4 = alloca ptr, align 8
  store ptr %0, ptr %3, align 8, !tbaa !132
  store ptr %1, ptr %4, align 8, !tbaa !8
  %5 = load ptr, ptr %3, align 8, !tbaa !132
  %6 = icmp ne ptr null, %5
  br i1 %6, label %7, label %13

7:                                                ; preds = %2
  %8 = load ptr, ptr %3, align 8, !tbaa !132
  %9 = getelementptr inbounds nuw %struct.pmix_tma, ptr %8, i32 0, i32 5
  %10 = load ptr, ptr %9, align 8, !tbaa !148
  %11 = load ptr, ptr %3, align 8, !tbaa !132
  %12 = load ptr, ptr %4, align 8, !tbaa !8
  call void %10(ptr noundef %11, ptr noundef %12)
  br label %15

13:                                               ; preds = %2
  %14 = load ptr, ptr %4, align 8, !tbaa !8
  call void @free(ptr noundef %14) #14
  br label %15

15:                                               ; preds = %13, %7
  ret void
}

; Function Attrs: inlinehint nounwind uwtable
define internal void @pmix_obj_run_destructors(ptr noundef %0) #4 {
  %2 = alloca ptr, align 8
  %3 = alloca ptr, align 8
  store ptr %0, ptr %2, align 8, !tbaa !89
  call void @llvm.lifetime.start.p0(i64 8, ptr %3) #14
  %4 = load ptr, ptr %2, align 8, !tbaa !89
  %5 = getelementptr inbounds nuw %struct.pmix_object_t, ptr %4, i32 0, i32 1
  %6 = load ptr, ptr %5, align 8, !tbaa !82
  %7 = getelementptr inbounds nuw %struct.pmix_class_t, ptr %6, i32 0, i32 7
  %8 = load ptr, ptr %7, align 8, !tbaa !146
  store ptr %8, ptr %3, align 8, !tbaa !8
  br label %9

9:                                                ; preds = %13, %1
  %10 = load ptr, ptr %3, align 8, !tbaa !8
  %11 = load ptr, ptr %10, align 8, !tbaa !8
  %12 = icmp ne ptr null, %11
  br i1 %12, label %13, label %19

13:                                               ; preds = %9
  %14 = load ptr, ptr %3, align 8, !tbaa !8
  %15 = load ptr, ptr %14, align 8, !tbaa !8
  %16 = load ptr, ptr %2, align 8, !tbaa !89
  call void %15(ptr noundef %16)
  %17 = load ptr, ptr %3, align 8, !tbaa !8
  %18 = getelementptr inbounds nuw ptr, ptr %17, i32 1
  store ptr %18, ptr %3, align 8, !tbaa !8
  br label %9, !llvm.loop !147

19:                                               ; preds = %9
  call void @llvm.lifetime.end.p0(i64 8, ptr %3) #14
  ret void
}

; Function Attrs: alwaysinline nounwind uwtable
define internal i32 @pmix_obj_update(ptr noundef %0, i32 noundef %1) #6 {
  %3 = alloca ptr, align 8
  %4 = alloca i32, align 4
  %5 = alloca i32, align 4
  store ptr %0, ptr %3, align 8, !tbaa !89
  store i32 %1, ptr %4, align 4, !tbaa !28
  call void @llvm.lifetime.start.p0(i64 4, ptr %5) #14
  %6 = load ptr, ptr %3, align 8, !tbaa !89
  %7 = getelementptr inbounds nuw %struct.pmix_object_t, ptr %6, i32 0, i32 0
  %8 = call i32 @pthread_mutex_lock(ptr noundef %7) #14
  store i32 %8, ptr %5, align 4, !tbaa !28
  %9 = load i32, ptr %5, align 4, !tbaa !28
  %10 = icmp eq i32 %9, 35
  br i1 %10, label %11, label %14

11:                                               ; preds = %2
  %12 = load i32, ptr %5, align 4, !tbaa !28
  %13 = call ptr @__errno_location() #16
  store i32 %12, ptr %13, align 4, !tbaa !28
  call void @perror(ptr noundef @.str.86)
  call void @abort() #17
  unreachable

14:                                               ; preds = %2
  %15 = load i32, ptr %4, align 4, !tbaa !28
  %16 = load ptr, ptr %3, align 8, !tbaa !89
  %17 = getelementptr inbounds nuw %struct.pmix_object_t, ptr %16, i32 0, i32 2
  %18 = load i32, ptr %17, align 8, !tbaa !83
  %19 = add nsw i32 %18, %15
  store i32 %19, ptr %17, align 8, !tbaa !83
  store i32 %19, ptr %5, align 4, !tbaa !28
  %20 = load ptr, ptr %3, align 8, !tbaa !89
  %21 = getelementptr inbounds nuw %struct.pmix_object_t, ptr %20, i32 0, i32 0
  %22 = call i32 @pthread_mutex_unlock(ptr noundef %21) #14
  %23 = load i32, ptr %5, align 4, !tbaa !28
  call void @llvm.lifetime.end.p0(i64 4, ptr %5) #14
  ret i32 %23
}

; Function Attrs: nounwind uwtable
define internal void @connect_timeout(i32 noundef %0, i16 noundef signext %1, ptr noundef %2) #0 {
  %4 = alloca i32, align 4
  %5 = alloca i16, align 2
  %6 = alloca ptr, align 8
  %7 = alloca ptr, align 8
  %8 = alloca i32, align 4
  %9 = alloca ptr, align 8
  store i32 %0, ptr %4, align 4, !tbaa !28
  store i16 %1, ptr %5, align 2, !tbaa !228
  store ptr %2, ptr %6, align 8, !tbaa !8
  call void @llvm.lifetime.start.p0(i64 8, ptr %7) #14
  %10 = load ptr, ptr %6, align 8, !tbaa !8
  store ptr %10, ptr %7, align 8, !tbaa !8
  %11 = load i32, ptr getelementptr inbounds nuw (%struct.pmix_server_globals_t, ptr @pmix_server_globals, i32 0, i32 19), align 4, !tbaa !277
  %12 = icmp sge i32 %11, 0
  br i1 %12, label %13, label %25

13:                                               ; preds = %3
  %14 = load i32, ptr getelementptr inbounds nuw (%struct.pmix_server_globals_t, ptr @pmix_server_globals, i32 0, i32 19), align 4, !tbaa !277
  %15 = icmp slt i32 %14, 64
  br i1 %15, label %16, label %25

16:                                               ; preds = %13
  %17 = load i32, ptr getelementptr inbounds nuw (%struct.pmix_server_globals_t, ptr @pmix_server_globals, i32 0, i32 19), align 4, !tbaa !277
  %18 = sext i32 %17 to i64
  %19 = getelementptr inbounds [0 x %struct.pmix_output_desc_t], ptr @pmix_output_info, i64 0, i64 %18
  %20 = getelementptr inbounds nuw %struct.pmix_output_desc_t, ptr %19, i32 0, i32 2
  %21 = load i32, ptr %20, align 4, !tbaa !26
  %22 = icmp sge i32 %21, 2
  br i1 %22, label %23, label %25

23:                                               ; preds = %16
  %24 = load i32, ptr getelementptr inbounds nuw (%struct.pmix_server_globals_t, ptr @pmix_server_globals, i32 0, i32 19), align 4, !tbaa !277
  call void (i32, ptr, ...) @pmix_output(i32 noundef %24, ptr noundef @.str.89)
  br label %25

25:                                               ; preds = %23, %16, %13, %3
  %26 = load ptr, ptr %7, align 8, !tbaa !8
  %27 = getelementptr inbounds nuw %struct.pmix_server_trkr_t, ptr %26, i32 0, i32 23
  %28 = load ptr, ptr %27, align 8, !tbaa !275
  %29 = icmp ne ptr null, %28
  br i1 %29, label %30, label %35

30:                                               ; preds = %25
  %31 = load ptr, ptr %7, align 8, !tbaa !8
  %32 = getelementptr inbounds nuw %struct.pmix_server_trkr_t, ptr %31, i32 0, i32 23
  %33 = load ptr, ptr %32, align 8, !tbaa !275
  %34 = load ptr, ptr %7, align 8, !tbaa !8
  call void %33(i32 noundef -24, ptr noundef %34)
  store i32 1, ptr %8, align 4
  br label %60

35:                                               ; preds = %25
  %36 = load ptr, ptr %7, align 8, !tbaa !8
  %37 = getelementptr inbounds nuw %struct.pmix_server_trkr_t, ptr %36, i32 0, i32 2
  store i8 0, ptr %37, align 8, !tbaa !221
  br label %38

38:                                               ; preds = %35
  call void @llvm.lifetime.start.p0(i64 8, ptr %9) #14
  %39 = load ptr, ptr %7, align 8, !tbaa !8
  store ptr %39, ptr %9, align 8, !tbaa !89
  %40 = load ptr, ptr %9, align 8, !tbaa !89
  %41 = call i32 @pmix_obj_update(ptr noundef %40, i32 noundef -1)
  %42 = icmp eq i32 0, %41
  br i1 %42, label %43, label %57

43:                                               ; preds = %38
  %44 = load ptr, ptr %9, align 8, !tbaa !89
  call void @pmix_obj_run_destructors(ptr noundef %44)
  %45 = load ptr, ptr %9, align 8, !tbaa !89
  %46 = getelementptr inbounds nuw %struct.pmix_object_t, ptr %45, i32 0, i32 3
  %47 = getelementptr inbounds nuw %struct.pmix_tma, ptr %46, i32 0, i32 5
  %48 = load ptr, ptr %47, align 8, !tbaa !91
  %49 = icmp ne ptr null, %48
  br i1 %49, label %50, label %54

50:                                               ; preds = %43
  %51 = load ptr, ptr %9, align 8, !tbaa !89
  %52 = getelementptr inbounds nuw %struct.pmix_object_t, ptr %51, i32 0, i32 3
  %53 = load ptr, ptr %7, align 8, !tbaa !8
  call void @pmix_tma_free(ptr noundef %52, ptr noundef %53)
  br label %56

54:                                               ; preds = %43
  %55 = load ptr, ptr %7, align 8, !tbaa !8
  call void @free(ptr noundef %55) #14
  br label %56

56:                                               ; preds = %54, %50
  store ptr null, ptr %7, align 8, !tbaa !8
  br label %57

57:                                               ; preds = %56, %38
  call void @llvm.lifetime.end.p0(i64 8, ptr %9) #14
  br label %58

58:                                               ; preds = %57
  br label %59

59:                                               ; preds = %58
  store i32 0, ptr %8, align 4
  br label %60

60:                                               ; preds = %59, %30
  call void @llvm.lifetime.end.p0(i64 8, ptr %7) #14
  %61 = load i32, ptr %8, align 4
  switch i32 %61, label %63 [
    i32 0, label %62
    i32 1, label %62
  ]

62:                                               ; preds = %60, %60
  ret void

63:                                               ; preds = %60
  unreachable
}